(dp0
S'1206.0916_trunc.txt'
p1
I976
sS'1206.6927_trunc.txt'
p2
I1004
sS'1405.1164_trunc.txt'
p3
I973
sS'1310.8123_trunc.txt'
p4
I1006
sS'1211.4962_trunc.txt'
p5
I1031
sS'1406.0345_trunc.txt'
p6
I969
sS'1210.4672_trunc.txt'
p7
I1022
sS'1411.5713_trunc.txt'
p8
I984
sS'1405.0338_trunc.txt'
p9
I993
sS'1309.6138_trunc.txt'
p10
I1087
sS'1502.03813_trunc.txt'
p11
I1013
sS'1412.4182_trunc.txt'
p12
I1005
sS'1511.02270_trunc.txt'
p13
I996
sS'1304.2985_trunc.txt'
p14
I1041
sS'1501.00442_trunc.txt'
p15
I988
sS'1409.5640_trunc.txt'
p16
I997
sS'1308.3304_trunc.txt'
p17
I970
sS'1207.0625_trunc.txt'
p18
I971
sS'1306.4864_trunc.txt'
p19
I1015
sS'1301.4954_trunc.txt'
p20
I1017
sS'1109.2938_trunc.txt'
p21
I1038
sS'1508.04948_trunc.txt'
p22
I997
sS'1307.1952_trunc.txt'
p23
I998
sS'1410.8740_trunc.txt'
p24
I1026
sS'1511.01957_trunc.txt'
p25
I994
sS'1111.6232_trunc.txt'
p26
I991
sS'1412.6697_trunc.txt'
p27
I1000
sS'1303.4911_trunc.txt'
p28
I1292
sS'1412.1490_trunc.txt'
p29
I1000
sS'1104.3318_trunc.txt'
p30
I988
sS'1211.3382_trunc.txt'
p31
I972
sS'1306.1059_trunc.txt'
p32
I1027
sS'1408.1239_trunc.txt'
p33
I1002
sS'1312.5114_trunc.txt'
p34
I1002
sS'1505.02913_trunc.txt'
p35
I1015
sS'1108.2477_trunc.txt'
p36
I1023
sS'1406.1758_trunc.txt'
p37
I990
sS'1308.0764_trunc.txt'
p38
I1015
sS'1310.5743_trunc.txt'
p39
I973
sS'1206.4770_trunc.txt'
p40
I1048
sS'1505.06832_trunc.txt'
p41
I1032
sS'1504.00865_trunc.txt'
p42
I985
sS'1404.0646_trunc.txt'
p43
I992
sS'1505.03118_trunc.txt'
p44
I993
sS'1303.4035_trunc.txt'
p45
I990
sS'1403.5113_trunc.txt'
p46
I1027
sS'1410.4934_trunc.txt'
p47
I1005
sS'1508.04905_trunc.txt'
p48
I1004
sS'1407.1114_trunc.txt'
p49
I1012
sS'1403.7683_trunc.txt'
p50
I988
sS'1404.6769_trunc.txt'
p51
I1031
sS'1504.03796_trunc.txt'
p52
I984
sS'1510.01858_trunc.txt'
p53
I996
sS'1106.2467_trunc.txt'
p54
I992
sS'1305.2436_trunc.txt'
p55
I997
sS'1309.5056_trunc.txt'
p56
I1041
sS'1408.2566_trunc.txt'
p57
I1020
sS'1208.4318_trunc.txt'
p58
I994
sS'1410.0891_trunc.txt'
p59
I1003
sS'1202.1574_trunc.txt'
p60
I972
sS'1310.5764_trunc.txt'
p61
I1004
sS'1312.6466_trunc.txt'
p62
I966
sS'1406.5936_trunc.txt'
p63
I944
sS'1112.2080_trunc.txt'
p64
I1002
sS'1111.1308_trunc.txt'
p65
I986
sS'1409.7685_trunc.txt'
p66
I996
sS'1407.5978_trunc.txt'
p67
I1005
sS'1205.1595_trunc.txt'
p68
I1007
sS'1105.1310_trunc.txt'
p69
I998
sS'1405.6655_trunc.txt'
p70
I1013
sS'1210.5552_trunc.txt'
p71
I1018
sS'1106.1193_trunc.txt'
p72
I997
sS'1109.1517_trunc.txt'
p73
I1041
sS'1507.01524_trunc.txt'
p74
I968
sS'1501.01208_trunc.txt'
p75
I1035
sS'1505.08120_trunc.txt'
p76
I1003
sS'1412.3730_trunc.txt'
p77
I1001
sS'1404.0216_trunc.txt'
p78
I1007
sS'1407.0743_trunc.txt'
p79
I1005
sS'1107.2353_trunc.txt'
p80
I1015
sS'1104.0338_trunc.txt'
p81
I1011
sS'1108.0481_trunc.txt'
p82
I991
sS'1105.5041_trunc.txt'
p83
I977
sS'1105.1697_trunc.txt'
p84
I1001
sS'1310.0150_trunc.txt'
p85
I1004
sS'1209.2355_trunc.txt'
p86
I996
sS'1107.0540_trunc.txt'
p87
I986
sS'1506.04153_trunc.txt'
p88
I998
sS'1407.4949_trunc.txt'
p89
I989
sS'1202.5070_trunc.txt'
p90
I1010
sS'1211.2630_trunc.txt'
p91
I1013
sS'1205.4818_trunc.txt'
p92
I1081
sS'1107.3542_trunc.txt'
p93
I997
sS'1305.0539_trunc.txt'
p94
I976
sS'1408.2287_trunc.txt'
p95
I1007
sS'1305.1470_trunc.txt'
p96
I987
sS'1310.2926_trunc.txt'
p97
I998
sS'1405.6803_trunc.txt'
p98
I989
sS'1503.06236_trunc.txt'
p99
I1009
sS'1311.7474_trunc.txt'
p100
I990
sS'1402.1937_trunc.txt'
p101
I1006
sS'1505.00482_trunc.txt'
p102
I995
sS'1307.3369_trunc.txt'
p103
I991
sS'1410.5496_trunc.txt'
p104
I951
sS'1504.05289_trunc.txt'
p105
I1029
sS'1505.02077_trunc.txt'
p106
I1029
sS'1302.6363_trunc.txt'
p107
I1011
sS'1308.5624_trunc.txt'
p108
I1001
sS'1506.04324_trunc.txt'
p109
I975
sS'1210.6950_trunc.txt'
p110
I967
sS'1310.3285_trunc.txt'
p111
I1044
sS'1302.6746_trunc.txt'
p112
I996
sS'1105.2135_trunc.txt'
p113
I1017
sS'1408.4045_trunc.txt'
p114
I1014
sS'1105.3655_trunc.txt'
p115
I1001
sS'1110.3895_trunc.txt'
p116
I1014
sS'1104.1244_trunc.txt'
p117
I1019
sS'1109.5998_trunc.txt'
p118
I993
sS'1509.00426_trunc.txt'
p119
I995
sS'1205.6275_trunc.txt'
p120
I1027
sS'1111.4646_trunc.txt'
p121
I1002
sS'1305.5067_trunc.txt'
p122
I1001
sS'1202.0786_trunc.txt'
p123
I1008
sS'1411.0900_trunc.txt'
p124
I1024
sS'1405.6942_trunc.txt'
p125
I1002
sS'1205.4345_trunc.txt'
p126
I1005
sS'1504.06984_trunc.txt'
p127
I959
sS'1204.4677_trunc.txt'
p128
I1015
sS'1508.05476_trunc.txt'
p129
I987
sS'1404.3397_trunc.txt'
p130
I1064
sS'1509.02992_trunc.txt'
p131
I990
sS'1306.1298_trunc.txt'
p132
I986
sS'1211.0919_trunc.txt'
p133
I1008
sS'1505.02611_trunc.txt'
p134
I1012
sS'1304.1237_trunc.txt'
p135
I1057
sS'1401.6578_trunc.txt'
p136
I994
sS'1211.0817_trunc.txt'
p137
I1004
sS'1411.1469_trunc.txt'
p138
I988
sS'1202.3307_trunc.txt'
p139
I983
sS'1107.2766_trunc.txt'
p140
I1020
sS'1207.3238_trunc.txt'
p141
I1092
sS'1302.3000_trunc.txt'
p142
I1028
sS'1311.0562_trunc.txt'
p143
I983
sS'1208.3862_trunc.txt'
p144
I1008
sS'1303.3740_trunc.txt'
p145
I1036
sS'1310.0333_trunc.txt'
p146
I991
sS'1507.02838_trunc.txt'
p147
I1011
sS'1407.3939_trunc.txt'
p148
I1010
sS'1404.3418_trunc.txt'
p149
I1044
sS'1311.1283_trunc.txt'
p150
I996
sS'1207.2406_trunc.txt'
p151
I898
sS'1409.0912_trunc.txt'
p152
I1019
sS'1305.5618_trunc.txt'
p153
I997
sS'1507.01494_trunc.txt'
p154
I999
sS'1112.1768_trunc.txt'
p155
I1011
sS'1405.6800_trunc.txt'
p156
I990
sS'1502.00600_trunc.txt'
p157
I1005
sS'1507.06227_trunc.txt'
p158
I1029
sS'1306.1493_trunc.txt'
p159
I986
sS'1407.7811_trunc.txt'
p160
I999
sS'1503.03879_trunc.txt'
p161
I1006
sS'1508.02201_trunc.txt'
p162
I1001
sS'1302.4815_trunc.txt'
p163
I1004
sS'1310.7320_trunc.txt'
p164
I985
sS'1103.6118_trunc.txt'
p165
I989
sS'1311.2669_trunc.txt'
p166
I1007
sS'1509.01900_trunc.txt'
p167
I1001
sS'1112.0311_trunc.txt'
p168
I1035
sS'1312.5085_trunc.txt'
p169
I1011
sS'1110.6084_trunc.txt'
p170
I1013
sS'1207.6313_trunc.txt'
p171
I1011
sS'1208.3555_trunc.txt'
p172
I1022
sS'1405.0379_trunc.txt'
p173
I1032
sS'1305.7462_trunc.txt'
p174
I995
sS'1205.4094_trunc.txt'
p175
I980
sS'1407.4373_trunc.txt'
p176
I999
sS'1403.0735_trunc.txt'
p177
I1009
sS'1408.6618_trunc.txt'
p178
I1004
sS'1508.01131_trunc.txt'
p179
I1654
sS'1506.03486_trunc.txt'
p180
I988
sS'1211.3224_trunc.txt'
p181
I984
sS'1510.04968_trunc.txt'
p182
I1002
sS'1306.4529_trunc.txt'
p183
I1005
sS'1210.7257_trunc.txt'
p184
I994
sS'1105.0014_trunc.txt'
p185
I1052
sS'1309.0997_trunc.txt'
p186
I1004
sS'1509.00368_trunc.txt'
p187
I996
sS'1509.06075_trunc.txt'
p188
I1001
sS'1401.7195_trunc.txt'
p189
I990
sS'1503.08340_trunc.txt'
p190
I1029
sS'1509.06428_trunc.txt'
p191
I999
sS'1507.06510_trunc.txt'
p192
I1045
sS'1502.00560_trunc.txt'
p193
I994
sS'1511.04162_trunc.txt'
p194
I1001
sS'1303.1288_trunc.txt'
p195
I1016
sS'1303.3118_trunc.txt'
p196
I1003
sS'1407.3491_trunc.txt'
p197
I1036
sS'1110.1846_trunc.txt'
p198
I979
sS'1504.00828_trunc.txt'
p199
I999
s.