(dp0
S'efficiency_(statistics).txt'
p1
I1256
sS'convergence_of_random_variables.txt'
p2
I2689
sS'consistency_(statistics).txt'
p3
I373
sS'analytic_and_enumerative_statistical_studies.txt'
p4
I387
sS'random_variable.txt'
p5
I3209
sS'statistical_inference.txt'
p6
I2504
sS'design_of_experiments.txt'
p7
I3218
sS'binomial_proportion_confidence_interval.txt'
p8
I1855
sS'maximum_likelihood.txt'
p9
I3850
sS'consistent_estimator.txt'
p10
I1081
sS'parameter_space.txt'
p11
I695
sS'completeness_(statistics).txt'
p12
I870
sS'studentization.txt'
p13
I209
sS'fisher_consistency.txt'
p14
I568
sS'pivotal_quantity.txt'
p15
I651
sS'window_function.txt'
p16
I4593
sS'optimal_design.txt'
p17
I2061
sS'galtons_problem.txt'
p18
I1709
sS'fiducial_inference.txt'
p19
I1298
sS'statistical_manifold.txt'
p20
I387
sS'winsorising.txt'
p21
I308
sS'bayesian_inference.txt'
p22
I4361
sS'sufficient_statistic.txt'
p23
I2597
sS'efficient_estimator.txt'
p24
I629
sS'maximum_a_posteriori_estimation.txt'
p25
I791
sS'recursive_partitioning.txt'
p26
I303
sS'restricted_maximum_likelihood.txt'
p27
I245
sS'a_priori_probability.txt'
p28
I175
sS'kullback-leibler_divergence.txt'
p29
I3854
sS'exponential_dispersion_model.txt'
p30
I124
sS'behrens-fisher_problem.txt'
p31
I1099
sS'magnitude_of_completeness.txt'
p32
I110
sS'sensitivity_and_specificity.txt'
p33
I1818
sS'spatial_dependence.txt'
p34
I289
sS'statistical_parameter.txt'
p35
I481
sS'conditionality_principle.txt'
p36
I239
sS'statistical_model.txt'
p37
I1430
sS'information_geometry.txt'
p38
I2107
sS'extreme_value_theory.txt'
p39
I861
sS'asymptotic_theory_(statistics).txt'
p40
I694
sS'response_surface_methodology.txt'
p41
I620
sS'peirces_criterion.txt'
p42
I1582
sS'edgeworth_series.txt'
p43
I812
sS'coherence_(statistics).txt'
p44
I195
sS'decoupling_(probability).txt'
p45
I80
sS'principle_of_maximum_entropy.txt'
p46
I2522
sS'shrinkage_(statistics).txt'
p47
I197
sS'bias_of_an_estimator.txt'
p48
I2644
sS'entropy_(information_theory).txt'
p49
I6008
sS'uncertainty.txt'
p50
I2025
sS'ancillary_statistic.txt'
p51
I603
sS'errors_and_residuals.txt'
p52
I1433
sS'parametric_model.txt'
p53
I548
sS'loss_function.txt'
p54
I1706
sS'likelihood-ratio_test.txt'
p55
I1326
sS'berkson_error_model.txt'
p56
I98
sS'model_selection.txt'
p57
I812
sS'semiparametric_model.txt'
p58
I344
sS'mathematical_statistics.txt'
p59
I1712
sS'frequency_(statistics).txt'
p60
I591
sS'youdens_j_statistic.txt'
p61
I339
sS'statistical_assumption.txt'
p62
I580
sS'invariant_estimator.txt'
p63
I1488
sS'sampling_distribution.txt'
p64
I746
sS'l-statistic.txt'
p65
I52
sS'bias_(statistics).txt'
p66
I399
sS'statistical_population.txt'
p67
I426
sS'robust_statistics.txt'
p68
I3853
sS'statistic.txt'
p69
I708
sS'fisher_transformation.txt'
p70
I381
sS'independent_and_identically_distributed_random_variables.txt'
p71
I699
sS'shrinkage_estimator.txt'
p72
I556
sS'nuisance_parameter.txt'
p73
I459
s.